; ModuleID = '49/315.c'
source_filename = "49/315.c"
target datalayout = "e-m:e-p270:32:32-p271:32:32-p272:64:64-i64:64-f80:128-n8:16:32:64-S128"
target triple = "x86_64-pc-linux-gnu"

@.str = private unnamed_addr constant [3 x i8] c"%c\00", align 1
@.str.1 = private unnamed_addr constant [2 x i8] c"\0A\00", align 1

; Function Attrs: noinline nounwind uwtable
define dso_local void @main() #0 {
  %1 = alloca i8*, align 8
  %2 = alloca i32, align 4
  %3 = alloca i32, align 4
  %4 = alloca i32, align 4
  %5 = alloca i32, align 4
  %6 = alloca i32, align 4
  %7 = alloca i32, align 4
  %8 = alloca i32**, align 8
  %9 = alloca i32, align 4
  %10 = alloca i32, align 4
  %11 = alloca i32, align 4
  %12 = alloca i32, align 4
  %13 = alloca i32, align 4
  store i32 0, i32* %6, align 4
  store i32 0, i32* %9, align 4
  store i32 0, i32* %10, align 4
  %14 = call noalias i8* @malloc(i64 800) #4
  %15 = bitcast i8* %14 to i32**
  store i32** %15, i32*** %8, align 8
  store i32 0, i32* %9, align 4
  br label %16

16:                                               ; preds = %26, %0
  %17 = load i32, i32* %9, align 4
  %18 = icmp slt i32 %17, 100
  br i1 %18, label %19, label %29

19:                                               ; preds = %16
  %20 = call noalias i8* @malloc(i64 12) #4
  %21 = bitcast i8* %20 to i32*
  %22 = load i32**, i32*** %8, align 8
  %23 = load i32, i32* %9, align 4
  %24 = sext i32 %23 to i64
  %25 = getelementptr inbounds i32*, i32** %22, i64 %24
  store i32* %21, i32** %25, align 8
  br label %26

26:                                               ; preds = %19
  %27 = load i32, i32* %9, align 4
  %28 = add nsw i32 %27, 1
  store i32 %28, i32* %9, align 4
  br label %16

29:                                               ; preds = %16
  store i32 0, i32* %9, align 4
  %30 = call noalias i8* @malloc(i64 500) #4
  store i8* %30, i8** %1, align 8
  %31 = load i8*, i8** %1, align 8
  %32 = call i32 (i8*, ...) bitcast (i32 (...)* @gets to i32 (i8*, ...)*)(i8* %31)
  %33 = load i8*, i8** %1, align 8
  %34 = call i64 @strlen(i8* %33) #5
  %35 = trunc i64 %34 to i32
  store i32 %35, i32* %3, align 4
  store i32 0, i32* %2, align 4
  br label %36

36:                                               ; preds = %130, %29
  %37 = load i32, i32* %2, align 4
  %38 = load i32, i32* %3, align 4
  %39 = icmp slt i32 %37, %38
  br i1 %39, label %40, label %133

40:                                               ; preds = %36
  store i32 1, i32* %6, align 4
  %41 = load i32, i32* %2, align 4
  %42 = add nsw i32 %41, 1
  store i32 %42, i32* %4, align 4
  br label %43

43:                                               ; preds = %126, %40
  %44 = load i32, i32* %4, align 4
  %45 = load i32, i32* %3, align 4
  %46 = icmp slt i32 %44, %45
  br i1 %46, label %47, label %129

47:                                               ; preds = %43
  %48 = load i8*, i8** %1, align 8
  %49 = load i32, i32* %2, align 4
  %50 = sext i32 %49 to i64
  %51 = getelementptr inbounds i8, i8* %48, i64 %50
  %52 = load i8, i8* %51, align 1
  %53 = sext i8 %52 to i32
  %54 = load i8*, i8** %1, align 8
  %55 = load i32, i32* %4, align 4
  %56 = sext i32 %55 to i64
  %57 = getelementptr inbounds i8, i8* %54, i64 %56
  %58 = load i8, i8* %57, align 1
  %59 = sext i8 %58 to i32
  %60 = icmp eq i32 %53, %59
  br i1 %60, label %61, label %125

61:                                               ; preds = %47
  store i32 0, i32* %6, align 4
  %62 = load i32, i32* %2, align 4
  %63 = add nsw i32 %62, 1
  store i32 %63, i32* %5, align 4
  br label %64

64:                                               ; preds = %93, %61
  %65 = load i32, i32* %5, align 4
  %66 = load i32, i32* %4, align 4
  %67 = sub nsw i32 %66, 1
  %68 = icmp sle i32 %65, %67
  br i1 %68, label %69, label %96

69:                                               ; preds = %64
  %70 = load i8*, i8** %1, align 8
  %71 = load i32, i32* %5, align 4
  %72 = sext i32 %71 to i64
  %73 = getelementptr inbounds i8, i8* %70, i64 %72
  %74 = load i8, i8* %73, align 1
  %75 = sext i8 %74 to i32
  %76 = load i8*, i8** %1, align 8
  %77 = load i32, i32* %4, align 4
  %78 = sext i32 %77 to i64
  %79 = getelementptr inbounds i8, i8* %76, i64 %78
  %80 = load i32, i32* %5, align 4
  %81 = sext i32 %80 to i64
  %82 = sub i64 0, %81
  %83 = getelementptr inbounds i8, i8* %79, i64 %82
  %84 = load i32, i32* %2, align 4
  %85 = sext i32 %84 to i64
  %86 = getelementptr inbounds i8, i8* %83, i64 %85
  %87 = load i8, i8* %86, align 1
  %88 = sext i8 %87 to i32
  %89 = icmp eq i32 %75, %88
  br i1 %89, label %90, label %91

90:                                               ; preds = %69
  store i32 0, i32* %6, align 4
  br label %92

91:                                               ; preds = %69
  store i32 1, i32* %6, align 4
  br label %92

92:                                               ; preds = %91, %90
  br label %93

93:                                               ; preds = %92
  %94 = load i32, i32* %5, align 4
  %95 = add nsw i32 %94, 1
  store i32 %95, i32* %5, align 4
  br label %64

96:                                               ; preds = %64
  %97 = load i32, i32* %6, align 4
  %98 = icmp eq i32 %97, 0
  br i1 %98, label %99, label %124

99:                                               ; preds = %96
  %100 = load i32, i32* %2, align 4
  %101 = load i32**, i32*** %8, align 8
  %102 = load i32, i32* %9, align 4
  %103 = sext i32 %102 to i64
  %104 = getelementptr inbounds i32*, i32** %101, i64 %103
  %105 = load i32*, i32** %104, align 8
  store i32 %100, i32* %105, align 4
  %106 = load i32, i32* %4, align 4
  %107 = load i32**, i32*** %8, align 8
  %108 = load i32, i32* %9, align 4
  %109 = sext i32 %108 to i64
  %110 = getelementptr inbounds i32*, i32** %107, i64 %109
  %111 = load i32*, i32** %110, align 8
  %112 = getelementptr inbounds i32, i32* %111, i64 1
  store i32 %106, i32* %112, align 4
  %113 = load i32, i32* %4, align 4
  %114 = load i32, i32* %2, align 4
  %115 = sub nsw i32 %113, %114
  %116 = load i32**, i32*** %8, align 8
  %117 = load i32, i32* %9, align 4
  %118 = sext i32 %117 to i64
  %119 = getelementptr inbounds i32*, i32** %116, i64 %118
  %120 = load i32*, i32** %119, align 8
  %121 = getelementptr inbounds i32, i32* %120, i64 2
  store i32 %115, i32* %121, align 4
  %122 = load i32, i32* %9, align 4
  %123 = add nsw i32 %122, 1
  store i32 %123, i32* %9, align 4
  br label %124

124:                                              ; preds = %99, %96
  br label %125

125:                                              ; preds = %124, %47
  br label %126

126:                                              ; preds = %125
  %127 = load i32, i32* %4, align 4
  %128 = add nsw i32 %127, 1
  store i32 %128, i32* %4, align 4
  br label %43

129:                                              ; preds = %43
  br label %130

130:                                              ; preds = %129
  %131 = load i32, i32* %2, align 4
  %132 = add nsw i32 %131, 1
  store i32 %132, i32* %2, align 4
  br label %36

133:                                              ; preds = %36
  store i32 0, i32* %13, align 4
  br label %134

134:                                              ; preds = %203, %133
  %135 = load i32, i32* %13, align 4
  %136 = load i32, i32* %9, align 4
  %137 = icmp slt i32 %135, %136
  br i1 %137, label %138, label %206

138:                                              ; preds = %134
  store i32 501, i32* %11, align 4
  store i32 0, i32* %10, align 4
  br label %139

139:                                              ; preds = %163, %138
  %140 = load i32, i32* %10, align 4
  %141 = load i32, i32* %9, align 4
  %142 = icmp slt i32 %140, %141
  br i1 %142, label %143, label %166

143:                                              ; preds = %139
  %144 = load i32**, i32*** %8, align 8
  %145 = load i32, i32* %10, align 4
  %146 = sext i32 %145 to i64
  %147 = getelementptr inbounds i32*, i32** %144, i64 %146
  %148 = load i32*, i32** %147, align 8
  %149 = getelementptr inbounds i32, i32* %148, i64 2
  %150 = load i32, i32* %149, align 4
  %151 = load i32, i32* %11, align 4
  %152 = icmp slt i32 %150, %151
  br i1 %152, label %153, label %162

153:                                              ; preds = %143
  %154 = load i32**, i32*** %8, align 8
  %155 = load i32, i32* %10, align 4
  %156 = sext i32 %155 to i64
  %157 = getelementptr inbounds i32*, i32** %154, i64 %156
  %158 = load i32*, i32** %157, align 8
  %159 = getelementptr inbounds i32, i32* %158, i64 2
  %160 = load i32, i32* %159, align 4
  store i32 %160, i32* %11, align 4
  %161 = load i32, i32* %10, align 4
  store i32 %161, i32* %12, align 4
  br label %162

162:                                              ; preds = %153, %143
  br label %163

163:                                              ; preds = %162
  %164 = load i32, i32* %10, align 4
  %165 = add nsw i32 %164, 1
  store i32 %165, i32* %10, align 4
  br label %139

166:                                              ; preds = %139
  %167 = load i32**, i32*** %8, align 8
  %168 = load i32, i32* %12, align 4
  %169 = sext i32 %168 to i64
  %170 = getelementptr inbounds i32*, i32** %167, i64 %169
  %171 = load i32*, i32** %170, align 8
  %172 = getelementptr inbounds i32, i32* %171, i64 0
  %173 = load i32, i32* %172, align 4
  store i32 %173, i32* %7, align 4
  br label %174

174:                                              ; preds = %192, %166
  %175 = load i32, i32* %7, align 4
  %176 = load i32**, i32*** %8, align 8
  %177 = load i32, i32* %12, align 4
  %178 = sext i32 %177 to i64
  %179 = getelementptr inbounds i32*, i32** %176, i64 %178
  %180 = load i32*, i32** %179, align 8
  %181 = getelementptr inbounds i32, i32* %180, i64 1
  %182 = load i32, i32* %181, align 4
  %183 = icmp sle i32 %175, %182
  br i1 %183, label %184, label %195

184:                                              ; preds = %174
  %185 = load i8*, i8** %1, align 8
  %186 = load i32, i32* %7, align 4
  %187 = sext i32 %186 to i64
  %188 = getelementptr inbounds i8, i8* %185, i64 %187
  %189 = load i8, i8* %188, align 1
  %190 = sext i8 %189 to i32
  %191 = call i32 (i8*, ...) @printf(i8* getelementptr inbounds ([3 x i8], [3 x i8]* @.str, i64 0, i64 0), i32 %190)
  br label %192

192:                                              ; preds = %184
  %193 = load i32, i32* %7, align 4
  %194 = add nsw i32 %193, 1
  store i32 %194, i32* %7, align 4
  br label %174

195:                                              ; preds = %174
  %196 = call i32 (i8*, ...) @printf(i8* getelementptr inbounds ([2 x i8], [2 x i8]* @.str.1, i64 0, i64 0))
  %197 = load i32**, i32*** %8, align 8
  %198 = load i32, i32* %12, align 4
  %199 = sext i32 %198 to i64
  %200 = getelementptr inbounds i32*, i32** %197, i64 %199
  %201 = load i32*, i32** %200, align 8
  %202 = getelementptr inbounds i32, i32* %201, i64 2
  store i32 501, i32* %202, align 4
  br label %203

203:                                              ; preds = %195
  %204 = load i32, i32* %13, align 4
  %205 = add nsw i32 %204, 1
  store i32 %205, i32* %13, align 4
  br label %134

206:                                              ; preds = %134
  ret void
}

; Function Attrs: nounwind
declare dso_local noalias i8* @malloc(i64) #1

declare dso_local i32 @gets(...) #2

; Function Attrs: nounwind readonly
declare dso_local i64 @strlen(i8*) #3

declare dso_local i32 @printf(i8*, ...) #2


!llvm.module.flags = !{!0}
!llvm.ident = !{!1}

!0 = !{i32 1, !"wchar_size", i32 4}
!1 = !{!"clang version 10.0.0-4ubuntu1 "}
